target datalayout = "e-m:e-p270:32:32-p271:32:32-p272:64:64-i64:64-i128:128-f80:128-n8:16:32:64-S128"
target triple = "x86_64-pc-linux-gnu"

%struct.H5FL_seq_head_t = type { %struct.H5FL_blk_head_t, i64 }
%struct.H5FL_blk_head_t = type { i8, i32, i32, i64, ptr, ptr }
%struct.H5O_t = type { %struct.H5C_cache_entry_t, i64, i64, i8, i64, i8, i32, i8, i8, i64, i64, i64, i64, i32, i32, i64, i64, ptr, i64, i64, i64, i64, ptr, i8, ptr }
%struct.H5C_cache_entry_t = type { ptr, i64, i64, ptr, i8, ptr, i8, i8, i8, i8, i32, i8, i8, i8, i8, i8, i32, ptr, i32, i32, i32, i32, i32, i8, i8, ptr, ptr, ptr, ptr, ptr, ptr, i8, i32, i8, i64, ptr, i64, i64, i32, i8, i32, i32, i8, ptr, ptr, ptr }
%struct.H5O_mesg_t = type { ptr, i8, i8, i32, i32, ptr, ptr, i64 }

@H5O_init_g = external global i8, align 1
@H5_libterm_g = external global i8, align 1
@H5_H5O_mesg_t_seq_free_list = external global %struct.H5FL_seq_head_t, align 8
@.str = private unnamed_addr constant [102 x i8] c"generated/home/dtcxzyw/WorkSpace/Projects/compilers/llvm-opt-benchmark/bench/hdf5/hdf5/src/H5Oalloc.c\00", align 1
@__func__.H5O__alloc_msgs = private unnamed_addr constant [16 x i8] c"H5O__alloc_msgs\00", align 1
@H5E_RESOURCE_g = external global i64, align 8
@H5E_NOSPACE_g = external global i64, align 8
@.str.1 = private unnamed_addr constant [25 x i8] c"memory allocation failed\00", align 1

; Function Attrs: nounwind uwtable
define i32 @H5O__alloc_msgs(ptr noundef %0, i64 noundef %1) #0 {
  %3 = alloca ptr, align 8
  %4 = alloca i64, align 8
  %5 = alloca i64, align 8
  %6 = alloca i64, align 8
  %7 = alloca ptr, align 8
  %8 = alloca i32, align 4
  %9 = alloca i8, align 1
  store ptr %0, ptr %3, align 8, !tbaa !3
  store i64 %1, ptr %4, align 8, !tbaa !8
  call void @llvm.lifetime.start.p0(i64 8, ptr %5) #6
  call void @llvm.lifetime.start.p0(i64 8, ptr %6) #6
  call void @llvm.lifetime.start.p0(i64 8, ptr %7) #6
  call void @llvm.lifetime.start.p0(i64 4, ptr %8) #6
  store i32 0, ptr %8, align 4, !tbaa !10
  call void @llvm.lifetime.start.p0(i64 1, ptr %9) #6
  store i8 0, ptr %9, align 1, !tbaa !12
  %10 = load i8, ptr @H5O_init_g, align 1, !tbaa !12, !range !14, !noundef !15
  %11 = trunc i8 %10 to i1
  br i1 %11, label %16, label %12

12:                                               ; preds = %2
  %13 = load i8, ptr @H5_libterm_g, align 1, !tbaa !12, !range !14, !noundef !15
  %14 = trunc i8 %13 to i1
  %15 = xor i1 %14, true
  br label %16

16:                                               ; preds = %12, %2
  %17 = phi i1 [ true, %2 ], [ %15, %12 ]
  %18 = xor i1 %17, true
  %19 = xor i1 %18, true
  %20 = zext i1 %19 to i32
  %21 = sext i32 %20 to i64
  %22 = call i64 @llvm.expect.i64(i64 %21, i64 1)
  %23 = icmp ne i64 %22, 0
  br i1 %23, label %24, label %89

24:                                               ; preds = %16
  %25 = load ptr, ptr %3, align 8, !tbaa !3
  %26 = getelementptr inbounds nuw %struct.H5O_t, ptr %25, i32 0, i32 16
  %27 = load i64, ptr %26, align 8, !tbaa !16
  store i64 %27, ptr %5, align 8, !tbaa !8
  %28 = load ptr, ptr %3, align 8, !tbaa !3
  %29 = getelementptr inbounds nuw %struct.H5O_t, ptr %28, i32 0, i32 16
  %30 = load i64, ptr %29, align 8, !tbaa !16
  %31 = load ptr, ptr %3, align 8, !tbaa !3
  %32 = getelementptr inbounds nuw %struct.H5O_t, ptr %31, i32 0, i32 16
  %33 = load i64, ptr %32, align 8, !tbaa !16
  %34 = load i64, ptr %4, align 8, !tbaa !8
  %35 = icmp ugt i64 %33, %34
  br i1 %35, label %36, label %40

36:                                               ; preds = %24
  %37 = load ptr, ptr %3, align 8, !tbaa !3
  %38 = getelementptr inbounds nuw %struct.H5O_t, ptr %37, i32 0, i32 16
  %39 = load i64, ptr %38, align 8, !tbaa !16
  br label %42

40:                                               ; preds = %24
  %41 = load i64, ptr %4, align 8, !tbaa !8
  br label %42

42:                                               ; preds = %40, %36
  %43 = phi i64 [ %39, %36 ], [ %41, %40 ]
  %44 = add i64 %30, %43
  store i64 %44, ptr %6, align 8, !tbaa !8
  %45 = load ptr, ptr %3, align 8, !tbaa !3
  %46 = getelementptr inbounds nuw %struct.H5O_t, ptr %45, i32 0, i32 17
  %47 = load ptr, ptr %46, align 8, !tbaa !28
  %48 = load i64, ptr %6, align 8, !tbaa !8
  %49 = call ptr @H5FL_seq_realloc(ptr noundef @H5_H5O_mesg_t_seq_free_list, ptr noundef %47, i64 noundef %48)
  store ptr %49, ptr %7, align 8, !tbaa !29
  %50 = icmp eq ptr null, %49
  br i1 %50, label %51, label %70

51:                                               ; preds = %42
  br label %52

52:                                               ; preds = %51
  br label %53

53:                                               ; preds = %52
  br label %54

54:                                               ; preds = %53
  %55 = load i64, ptr @H5E_RESOURCE_g, align 8, !tbaa !8
  %56 = load i64, ptr @H5E_NOSPACE_g, align 8, !tbaa !8
  %57 = call i32 (ptr, ptr, i32, i64, i64, ptr, ...) @H5E_printf_stack(ptr noundef @.str, ptr noundef @__func__.H5O__alloc_msgs, i32 noundef 436, i64 noundef %55, i64 noundef %56, ptr noundef @.str.1)
  br label %58

58:                                               ; preds = %54
  br label %59

59:                                               ; preds = %58
  store i8 1, ptr %9, align 1, !tbaa !12
  %60 = load i8, ptr %9, align 1, !tbaa !12, !range !14, !noundef !15
  %61 = trunc i8 %60 to i1
  %62 = zext i1 %61 to i8
  store i8 %62, ptr %9, align 1, !tbaa !12
  br label %63

63:                                               ; preds = %59
  br label %64

64:                                               ; preds = %63
  br label %65

65:                                               ; preds = %64
  store i32 -1, ptr %8, align 4, !tbaa !10
  br label %88

66:                                               ; No predecessors!
  br label %67

67:                                               ; preds = %66
  br label %68

68:                                               ; preds = %67
  br label %69

69:                                               ; preds = %68
  br label %70

70:                                               ; preds = %69, %42
  %71 = load i64, ptr %6, align 8, !tbaa !8
  %72 = load ptr, ptr %3, align 8, !tbaa !3
  %73 = getelementptr inbounds nuw %struct.H5O_t, ptr %72, i32 0, i32 16
  store i64 %71, ptr %73, align 8, !tbaa !16
  %74 = load ptr, ptr %7, align 8, !tbaa !29
  %75 = load ptr, ptr %3, align 8, !tbaa !3
  %76 = getelementptr inbounds nuw %struct.H5O_t, ptr %75, i32 0, i32 17
  store ptr %74, ptr %76, align 8, !tbaa !28
  %77 = load ptr, ptr %3, align 8, !tbaa !3
  %78 = getelementptr inbounds nuw %struct.H5O_t, ptr %77, i32 0, i32 17
  %79 = load ptr, ptr %78, align 8, !tbaa !28
  %80 = load i64, ptr %5, align 8, !tbaa !8
  %81 = getelementptr inbounds nuw %struct.H5O_mesg_t, ptr %79, i64 %80
  %82 = load ptr, ptr %3, align 8, !tbaa !3
  %83 = getelementptr inbounds nuw %struct.H5O_t, ptr %82, i32 0, i32 16
  %84 = load i64, ptr %83, align 8, !tbaa !16
  %85 = load i64, ptr %5, align 8, !tbaa !8
  %86 = sub i64 %84, %85
  %87 = mul i64 %86, 48
  call void @llvm.memset.p0.i64(ptr align 8 %81, i8 0, i64 %87, i1 false)
  br label %88

88:                                               ; preds = %70, %65
  br label %89

89:                                               ; preds = %88, %16
  %90 = load i32, ptr %8, align 4, !tbaa !10
  call void @llvm.lifetime.end.p0(i64 1, ptr %9) #6
  call void @llvm.lifetime.end.p0(i64 4, ptr %8) #6
  call void @llvm.lifetime.end.p0(i64 8, ptr %7) #6
  call void @llvm.lifetime.end.p0(i64 8, ptr %6) #6
  call void @llvm.lifetime.end.p0(i64 8, ptr %5) #6
  ret i32 %90
}