; Function Attrs: nounwind uwtable
define range(i32 -1, 1) i32 @H5O__alloc_msgs(ptr noundef captures(none) %0, i64 noundef %1) local_unnamed_addr #0 {
  %3 = load i8, ptr @H5O_init_g, align 1, !tbaa !3, !range !7, !noundef !8
  %4 = trunc nuw i8 %3 to i1
  %5 = load i8, ptr @H5_libterm_g, align 1, !range !7
  %6 = trunc nuw i8 %5 to i1
  %7 = xor i1 %6, true
  %8 = select i1 %4, i1 true, i1 %7
  br i1 %8, label %9, label %24, !prof !9

9:                                                ; preds = %2
  %10 = getelementptr inbounds nuw i8, ptr %0, i64 344
  %11 = load i64, ptr %10, align 8, !tbaa !10
  %. = tail call i64 @llvm.umax.i64(i64 %11, i64 %1)
  %12 = add i64 %., %11
  %13 = getelementptr inbounds nuw i8, ptr %0, i64 352
  %14 = load ptr, ptr %13, align 8, !tbaa !25
  %15 = tail call ptr @H5FL_seq_realloc(ptr noundef nonnull @H5_H5O_mesg_t_seq_free_list, ptr noundef %14, i64 noundef %12) #7
  %16 = icmp eq ptr %15, null
  br i1 %16, label %17, label %21

17:                                               ; preds = %9
  %18 = load i64, ptr @H5E_RESOURCE_g, align 8, !tbaa !26
  %19 = load i64, ptr @H5E_NOSPACE_g, align 8, !tbaa !26
  %20 = tail call i32 (ptr, ptr, i32, i64, i64, ptr, ...) @H5E_printf_stack(ptr noundef nonnull @.str, ptr noundef nonnull @__func__.H5O__alloc_msgs, i32 noundef 436, i64 noundef %18, i64 noundef %19, ptr noundef nonnull @.str.1) #7
  br label %24

21:                                               ; preds = %9
  store i64 %12, ptr %10, align 8, !tbaa !10
  store ptr %15, ptr %13, align 8, !tbaa !25
  %22 = getelementptr inbounds nuw %struct.H5O_mesg_t, ptr %15, i64 %11
  %23 = mul i64 %., 48
  tail call void @llvm.memset.p0.i64(ptr nonnull align 8 %22, i8 0, i64 %23, i1 false)
  br label %24

24:                                               ; preds = %17, %21, %2
  %.0 = phi i32 [ -1, %17 ], [ 0, %21 ], [ 0, %2 ]
  ret i32 %.0
}